target datalayout = "e-m:e-p270:32:32-p271:32:32-p272:64:64-i64:64-i128:128-f80:128-n8:16:32:64-S128"
target triple = "x86_64-pc-linux-gnu"

%struct.rb_data_type_struct = type { ptr, %struct.anon, ptr, ptr, i64 }
%struct.anon = type { ptr, ptr, ptr, ptr, [1 x ptr] }

@eEC_GROUP = internal global i64 0, align 8
@ossl_ec_group_type = internal constant %struct.rb_data_type_struct { ptr @.str.61, %struct.anon { ptr null, ptr @ossl_ec_group_free, ptr null, ptr null, [1 x ptr] zeroinitializer }, ptr null, ptr null, i64 33 }, align 8
@.str.59 = private unnamed_addr constant [28 x i8] c"EC_GROUP is not initialized\00", align 1
@.str.93 = private unnamed_addr constant [21 x i8] c"BIO_new(BIO_s_mem())\00", align 1

; Function Attrs: nounwind sspstrong uwtable
define internal i64 @ossl_ec_group_to_text(i64 noundef %0) #0 {
  %2 = alloca i64, align 8
  %3 = alloca ptr, align 8
  %4 = alloca ptr, align 8
  %5 = alloca i64, align 8
  store i64 %0, ptr %2, align 8, !tbaa !6
  call void @llvm.lifetime.start.p0(i64 8, ptr %3) #19
  call void @llvm.lifetime.start.p0(i64 8, ptr %4) #19
  call void @llvm.lifetime.start.p0(i64 8, ptr %5) #19
  br label %6

6:                                                ; preds = %1
  %7 = load i64, ptr %2, align 8, !tbaa !6
  %8 = call ptr @rb_check_typeddata(i64 noundef %7, ptr noundef @ossl_ec_group_type)
  store ptr %8, ptr %3, align 8, !tbaa !33
  %9 = load ptr, ptr %3, align 8, !tbaa !33
  %10 = icmp eq ptr %9, null
  br i1 %10, label %11, label %13

11:                                               ; preds = %6
  %12 = load i64, ptr @eEC_GROUP, align 8, !tbaa !6
  call void (i64, ptr, ...) @ossl_raise(i64 noundef %12, ptr noundef @.str.59) #20
  unreachable

13:                                               ; preds = %6
  br label %14

14:                                               ; preds = %13
  br label %15

15:                                               ; preds = %14
  %16 = call ptr @BIO_s_mem()
  %17 = call ptr @BIO_new(ptr noundef %16)
  store ptr %17, ptr %4, align 8, !tbaa !31
  %18 = icmp ne ptr %17, null
  br i1 %18, label %21, label %19

19:                                               ; preds = %15
  %20 = load i64, ptr @eEC_GROUP, align 8, !tbaa !6
  call void (i64, ptr, ...) @ossl_raise(i64 noundef %20, ptr noundef @.str.93) #20
  unreachable

21:                                               ; preds = %15
  %22 = load ptr, ptr %4, align 8, !tbaa !31
  %23 = load ptr, ptr %3, align 8, !tbaa !33
  %24 = call i32 @ECPKParameters_print(ptr noundef %22, ptr noundef %23, i32 noundef 0)
  %25 = icmp ne i32 %24, 0
  br i1 %25, label %30, label %26

26:                                               ; preds = %21
  %27 = load ptr, ptr %4, align 8, !tbaa !31
  %28 = call i32 @BIO_free(ptr noundef %27)
  %29 = load i64, ptr @eEC_GROUP, align 8, !tbaa !6
  call void (i64, ptr, ...) @ossl_raise(i64 noundef %29, ptr noundef null) #20
  unreachable

30:                                               ; preds = %21
  %31 = load ptr, ptr %4, align 8, !tbaa !31
  %32 = call i64 @ossl_membio2str(ptr noundef %31)
  store i64 %32, ptr %5, align 8, !tbaa !6
  %33 = load i64, ptr %5, align 8, !tbaa !6
  call void @llvm.lifetime.end.p0(i64 8, ptr %5) #19
  call void @llvm.lifetime.end.p0(i64 8, ptr %4) #19
  call void @llvm.lifetime.end.p0(i64 8, ptr %3) #19
  ret i64 %33
}