; Function Attrs: nounwind sspstrong uwtable
define internal i64 @ossl_ec_group_to_text(i64 noundef %0) #0 {
  %2 = tail call ptr @rb_check_typeddata(i64 noundef %0, ptr noundef nonnull @ossl_ec_group_type) #7
  %3 = icmp eq ptr %2, null
  br i1 %3, label %4, label %6

4:                                                ; preds = %1
  %5 = load i64, ptr @eEC_GROUP, align 8, !tbaa !6
  tail call void (i64, ptr, ...) @ossl_raise(i64 noundef %5, ptr noundef nonnull @.str.59) #9
  unreachable

6:                                                ; preds = %1
  %7 = tail call ptr @BIO_s_mem() #7
  %8 = tail call ptr @BIO_new(ptr noundef %7) #7
  %.not = icmp eq ptr %8, null
  br i1 %.not, label %9, label %11

9:                                                ; preds = %6
  %10 = load i64, ptr @eEC_GROUP, align 8, !tbaa !6
  tail call void (i64, ptr, ...) @ossl_raise(i64 noundef %10, ptr noundef nonnull @.str.93) #9
  unreachable

11:                                               ; preds = %6
  %12 = tail call i32 @ECPKParameters_print(ptr noundef nonnull %8, ptr noundef nonnull %2, i32 noundef 0) #7
  %.not7 = icmp eq i32 %12, 0
  br i1 %.not7, label %13, label %16

13:                                               ; preds = %11
  %14 = tail call i32 @BIO_free(ptr noundef nonnull %8) #7
  %15 = load i64, ptr @eEC_GROUP, align 8, !tbaa !6
  tail call void (i64, ptr, ...) @ossl_raise(i64 noundef %15, ptr noundef null) #9
  unreachable

16:                                               ; preds = %11
  %17 = tail call i64 @ossl_membio2str(ptr noundef nonnull %8) #7
  ret i64 %17
}